target datalayout = "e-m:e-p270:32:32-p271:32:32-p272:64:64-i64:64-i128:128-f80:128-n8:16:32:64-S128"
target triple = "x86_64-pc-linux-gnu"

%struct._lv_spinbox_t = type { %struct._lv_textarea_t, i32, i32, i32, i32, i16 }
%struct._lv_textarea_t = type { %struct._lv_obj_t, ptr, ptr, ptr, ptr, ptr, i32, i32, %struct.anon, i32, i32, i8 }
%struct._lv_obj_t = type { ptr, ptr, ptr, ptr, ptr, %struct.lv_area_t, i32, i16, i16 }
%struct.lv_area_t = type { i32, i32, i32, i32 }
%struct.anon = type { i32, i32, %struct.lv_area_t, i32, i8 }

; Function Attrs: nounwind uwtable
define void @lv_spinbox_decrement(ptr noundef %0) #0 {
  %2 = alloca ptr, align 8
  %3 = alloca ptr, align 8
  %4 = alloca i32, align 4
  store ptr %0, ptr %2, align 8, !tbaa !3
  br label %5

5:                                                ; preds = %1
  br label %6

6:                                                ; preds = %5
  call void @llvm.lifetime.start.p0(i64 8, ptr %3) #4
  %7 = load ptr, ptr %2, align 8, !tbaa !3
  store ptr %7, ptr %3, align 8, !tbaa !3
  call void @llvm.lifetime.start.p0(i64 4, ptr %4) #4
  %8 = load ptr, ptr %3, align 8, !tbaa !3
  %9 = getelementptr inbounds nuw %struct._lv_spinbox_t, ptr %8, i32 0, i32 1
  %10 = load i32, ptr %9, align 8, !tbaa !7
  store i32 %10, ptr %4, align 4, !tbaa !18
  %11 = load ptr, ptr %3, align 8, !tbaa !3
  %12 = getelementptr inbounds nuw %struct._lv_spinbox_t, ptr %11, i32 0, i32 1
  %13 = load i32, ptr %12, align 8, !tbaa !7
  %14 = icmp sgt i32 %13, 0
  br i1 %14, label %15, label %32

15:                                               ; preds = %6
  %16 = load ptr, ptr %3, align 8, !tbaa !3
  %17 = getelementptr inbounds nuw %struct._lv_spinbox_t, ptr %16, i32 0, i32 1
  %18 = load i32, ptr %17, align 8, !tbaa !7
  %19 = load ptr, ptr %3, align 8, !tbaa !3
  %20 = getelementptr inbounds nuw %struct._lv_spinbox_t, ptr %19, i32 0, i32 4
  %21 = load i32, ptr %20, align 4, !tbaa !15
  %22 = sub nsw i32 %18, %21
  %23 = icmp slt i32 %22, 0
  br i1 %23, label %24, label %32

24:                                               ; preds = %15
  %25 = load ptr, ptr %3, align 8, !tbaa !3
  %26 = getelementptr inbounds nuw %struct._lv_spinbox_t, ptr %25, i32 0, i32 4
  %27 = load i32, ptr %26, align 4, !tbaa !15
  %28 = load ptr, ptr %3, align 8, !tbaa !3
  %29 = getelementptr inbounds nuw %struct._lv_spinbox_t, ptr %28, i32 0, i32 1
  %30 = load i32, ptr %29, align 8, !tbaa !7
  %31 = sub nsw i32 %27, %30
  store i32 %31, ptr %4, align 4, !tbaa !18
  br label %32

32:                                               ; preds = %24, %15, %6
  %33 = load i32, ptr %4, align 4, !tbaa !18
  %34 = load ptr, ptr %3, align 8, !tbaa !3
  %35 = getelementptr inbounds nuw %struct._lv_spinbox_t, ptr %34, i32 0, i32 4
  %36 = load i32, ptr %35, align 4, !tbaa !15
  %37 = sub nsw i32 %33, %36
  %38 = load ptr, ptr %3, align 8, !tbaa !3
  %39 = getelementptr inbounds nuw %struct._lv_spinbox_t, ptr %38, i32 0, i32 3
  %40 = load i32, ptr %39, align 8, !tbaa !17
  %41 = icmp sge i32 %37, %40
  br i1 %41, label %42, label %48

42:                                               ; preds = %32
  %43 = load ptr, ptr %3, align 8, !tbaa !3
  %44 = getelementptr inbounds nuw %struct._lv_spinbox_t, ptr %43, i32 0, i32 4
  %45 = load i32, ptr %44, align 4, !tbaa !15
  %46 = load i32, ptr %4, align 4, !tbaa !18
  %47 = sub nsw i32 %46, %45
  store i32 %47, ptr %4, align 4, !tbaa !18
  br label %73

48:                                               ; preds = %32
  %49 = load ptr, ptr %3, align 8, !tbaa !3
  %50 = getelementptr inbounds nuw %struct._lv_spinbox_t, ptr %49, i32 0, i32 5
  %51 = load i16, ptr %50, align 8
  %52 = lshr i16 %51, 8
  %53 = and i16 %52, 1
  %54 = zext i16 %53 to i32
  %55 = icmp ne i32 %54, 0
  br i1 %55, label %56, label %68

56:                                               ; preds = %48
  %57 = load ptr, ptr %3, align 8, !tbaa !3
  %58 = getelementptr inbounds nuw %struct._lv_spinbox_t, ptr %57, i32 0, i32 1
  %59 = load i32, ptr %58, align 8, !tbaa !7
  %60 = load ptr, ptr %3, align 8, !tbaa !3
  %61 = getelementptr inbounds nuw %struct._lv_spinbox_t, ptr %60, i32 0, i32 3
  %62 = load i32, ptr %61, align 8, !tbaa !17
  %63 = icmp eq i32 %59, %62
  br i1 %63, label %64, label %68

64:                                               ; preds = %56
  %65 = load ptr, ptr %3, align 8, !tbaa !3
  %66 = getelementptr inbounds nuw %struct._lv_spinbox_t, ptr %65, i32 0, i32 2
  %67 = load i32, ptr %66, align 4, !tbaa !16
  store i32 %67, ptr %4, align 4, !tbaa !18
  br label %72

68:                                               ; preds = %56, %48
  %69 = load ptr, ptr %3, align 8, !tbaa !3
  %70 = getelementptr inbounds nuw %struct._lv_spinbox_t, ptr %69, i32 0, i32 3
  %71 = load i32, ptr %70, align 8, !tbaa !17
  store i32 %71, ptr %4, align 4, !tbaa !18
  br label %72

72:                                               ; preds = %68, %64
  br label %73

73:                                               ; preds = %72, %42
  %74 = load i32, ptr %4, align 4, !tbaa !18
  %75 = load ptr, ptr %3, align 8, !tbaa !3
  %76 = getelementptr inbounds nuw %struct._lv_spinbox_t, ptr %75, i32 0, i32 1
  %77 = load i32, ptr %76, align 8, !tbaa !7
  %78 = icmp ne i32 %74, %77
  br i1 %78, label %79, label %84

79:                                               ; preds = %73
  %80 = load i32, ptr %4, align 4, !tbaa !18
  %81 = load ptr, ptr %3, align 8, !tbaa !3
  %82 = getelementptr inbounds nuw %struct._lv_spinbox_t, ptr %81, i32 0, i32 1
  store i32 %80, ptr %82, align 8, !tbaa !7
  %83 = load ptr, ptr %2, align 8, !tbaa !3
  call void @lv_spinbox_updatevalue(ptr noundef %83)
  br label %84

84:                                               ; preds = %79, %73
  call void @llvm.lifetime.end.p0(i64 4, ptr %4) #4
  call void @llvm.lifetime.end.p0(i64 8, ptr %3) #4
  ret void
}