; Function Attrs: nounwind uwtable
define void @lv_spinbox_decrement(ptr noundef %0) local_unnamed_addr #0 {
._crit_edge:
  %1 = getelementptr inbounds nuw i8, ptr %0, i64 160
  %2 = load i32, ptr %1, align 8, !tbaa !3
  %3 = icmp sgt i32 %2, 0
  %4 = getelementptr inbounds nuw i8, ptr %0, i64 172
  %5 = load i32, ptr %4, align 4, !tbaa !14
  %6 = icmp slt i32 %2, %5
  %7 = sub nsw i32 %5, %2
  %8 = and i1 %3, %6
  %.0 = select i1 %8, i32 %7, i32 %2
  %9 = sub nsw i32 %.0, %5
  %10 = getelementptr inbounds nuw i8, ptr %0, i64 168
  %11 = load i32, ptr %10, align 8, !tbaa !16
  %.not = icmp slt i32 %9, %11
  br i1 %.not, label %12, label %20

12:                                               ; preds = %._crit_edge
  %13 = getelementptr inbounds nuw i8, ptr %0, i64 176
  %14 = load i16, ptr %13, align 8
  %15 = and i16 %14, 256
  %.not25 = icmp ne i16 %15, 0
  %16 = icmp eq i32 %2, %11
  %or.cond = and i1 %16, %.not25
  br i1 %or.cond, label %17, label %20

17:                                               ; preds = %12
  %18 = getelementptr inbounds nuw i8, ptr %0, i64 164
  %19 = load i32, ptr %18, align 4, !tbaa !15
  br label %20

20:                                               ; preds = %12, %._crit_edge, %17
  %.1 = phi i32 [ %19, %17 ], [ %9, %._crit_edge ], [ %11, %12 ]
  %.not26 = icmp eq i32 %.1, %2
  br i1 %.not26, label %22, label %21

21:                                               ; preds = %20
  store i32 %.1, ptr %1, align 8, !tbaa !3
  tail call fastcc void @lv_spinbox_updatevalue(ptr noundef nonnull %0)
  br label %22

22:                                               ; preds = %21, %20
  ret void
}